target datalayout = "e-m:e-p270:32:32-p271:32:32-p272:64:64-i64:64-i128:128-f80:128-n8:16:32:64-S128"
target triple = "x86_64-unknown-linux-gnu"

%"class.Assimp::FindDegeneratesProcess" = type <{ %"class.Assimp::BaseProcess", i8, i8, [6 x i8] }>
%"class.Assimp::BaseProcess" = type { ptr, ptr, ptr }

; Function Attrs: mustprogress nounwind uwtable
define void @_ZN6Assimp22FindDegeneratesProcessC2Ev(ptr noundef nonnull align 8 dereferenceable(26) %this) unnamed_addr #0 align 2 {
entry:
  %this.addr = alloca ptr, align 8
  store ptr %this, ptr %this.addr, align 8
  %this1 = load ptr, ptr %this.addr, align 8
  call void @_ZN6Assimp11BaseProcessC2Ev(ptr noundef nonnull align 8 dereferenceable(24) %this1) #13
  store ptr getelementptr inbounds ({ [8 x ptr] }, ptr @_ZTVN6Assimp22FindDegeneratesProcessE, i32 0, i32 0, i32 2), ptr %this1, align 8
  %mConfigRemoveDegenerates = getelementptr inbounds %"class.Assimp::FindDegeneratesProcess", ptr %this1, i32 0, i32 1
  store i8 0, ptr %mConfigRemoveDegenerates, align 8
  %mConfigCheckAreaOfTriangle = getelementptr inbounds %"class.Assimp::FindDegeneratesProcess", ptr %this1, i32 0, i32 2
  store i8 0, ptr %mConfigCheckAreaOfTriangle, align 1
  ret void
}